; Function Attrs: nofree nounwind uwtable
define void @log_data_err(ptr noundef readonly %0, ...) local_unnamed_addr #2 {
  %2 = alloca [1 x %struct.__va_list_tag], align 16
  call void @llvm.lifetime.start.p0(i64 24, ptr nonnull %2) #23
  call void @llvm.va_start.p0(ptr nonnull %2)
  %.b.i.i.i = load i1, ptr @ON_LINE, align 1
  br i1 %.b.i.i.i, label %3, label %go_offline_err.exit

3:                                                ; preds = %1
  call void (ptr, ...) @log_testinfo(ptr noundef nonnull @.str.76)
  store i1 false, ptr @ON_LINE, align 1
  br label %go_offline_err.exit

go_offline_err.exit:                              ; preds = %1, %3
  %4 = load i32, ptr @DATA_ERROR_COUNT, align 4, !tbaa !18
  %5 = add nsw i32 %4, 1
  store i32 %5, ptr @DATA_ERROR_COUNT, align 4, !tbaa !18
  %6 = load i32, ptr @WARN_ON_MISSING_DATA, align 4, !tbaa !18
  %7 = icmp eq i32 %6, 0
  br i1 %7, label %8, label %14

8:                                                ; preds = %go_offline_err.exit
  %9 = call ptr @strchr(ptr noundef nonnull dereferenceable(1) %0, i32 noundef 10) #25
  %.not = icmp eq ptr %9, null
  br i1 %.not, label %13, label %10

10:                                               ; preds = %8
  %11 = load i32, ptr @ERROR_COUNT, align 4, !tbaa !18
  %12 = add nsw i32 %11, 1
  store i32 %12, ptr @ERROR_COUNT, align 4, !tbaa !18
  br label %13

13:                                               ; preds = %10, %8
  call fastcc void @vlog_err(ptr noundef nonnull %0, ptr noundef %2)
  br label %15

14:                                               ; preds = %go_offline_err.exit
  call void @vlog_info(ptr noundef nonnull @.str.18, ptr noundef %0, ptr noundef nonnull %2)
  br label %15

15:                                               ; preds = %14, %13
  call void @llvm.va_end.p0(ptr nonnull %2)
  call void @llvm.lifetime.end.p0(i64 24, ptr nonnull %2) #23
  ret void
}